
./test/test.om:     file format elf32-littleriscv


Disassembly of section .rom:

00000000 <.rom>:
   0:	00020137          	lui	sp,0x20
   4:	1b8010ef          	jal	ra,11bc <main>
   8:	0ff00513          	addi	a0,zero,255
   c:	000306b7          	lui	a3,0x30
  10:	00a68223          	sb	a0,4(a3) # 30004 <__heap_start+0x2e004>
  14:	ff9ff06f          	jal	zero,c <outl-0xff4>

Disassembly of section .text:

00001000 <outl>:
    1000:	fd010113          	addi	sp,sp,-48 # 1ffd0 <__heap_start+0x1dfd0>
    1004:	02912223          	sw	s1,36(sp)
    1008:	01512a23          	sw	s5,20(sp)
    100c:	02112623          	sw	ra,44(sp)
    1010:	02812423          	sw	s0,40(sp)
    1014:	03212023          	sw	s2,32(sp)
    1018:	01312e23          	sw	s3,28(sp)
    101c:	01412c23          	sw	s4,24(sp)
    1020:	00050493          	addi	s1,a0,0
    1024:	00000a93          	addi	s5,zero,0
    1028:	00055663          	bge	a0,zero,1034 <outl+0x34>
    102c:	40a004b3          	sub	s1,zero,a0
    1030:	00100a93          	addi	s5,zero,1
    1034:	00000993          	addi	s3,zero,0
    1038:	00410913          	addi	s2,sp,4
    103c:	00900a13          	addi	s4,zero,9
    1040:	00c0006f          	jal	zero,104c <outl+0x4c>
    1044:	00040993          	addi	s3,s0,0
    1048:	00050493          	addi	s1,a0,0
    104c:	00a00593          	addi	a1,zero,10
    1050:	00048513          	addi	a0,s1,0
    1054:	138000ef          	jal	ra,118c <__modsi3>
    1058:	00198413          	addi	s0,s3,1
    105c:	03050713          	addi	a4,a0,48
    1060:	008907b3          	add	a5,s2,s0
    1064:	00048513          	addi	a0,s1,0
    1068:	00a00593          	addi	a1,zero,10
    106c:	fee78fa3          	sb	a4,-1(a5)
    1070:	098000ef          	jal	ra,1108 <__divsi3>
    1074:	fc9a48e3          	blt	s4,s1,1044 <outl+0x44>
    1078:	000a8c63          	beq	s5,zero,1090 <outl+0x90>
    107c:	01010793          	addi	a5,sp,16
    1080:	008787b3          	add	a5,a5,s0
    1084:	02d00713          	addi	a4,zero,45
    1088:	fee78a23          	sb	a4,-12(a5)
    108c:	00298413          	addi	s0,s3,2
    1090:	008907b3          	add	a5,s2,s0
    1094:	000306b7          	lui	a3,0x30
    1098:	fff7c703          	lbu	a4,-1(a5)
    109c:	fff78793          	addi	a5,a5,-1
    10a0:	00e68023          	sb	a4,0(a3) # 30000 <__heap_start+0x2e000>
    10a4:	fef91ae3          	bne	s2,a5,1098 <outl+0x98>
    10a8:	02c12083          	lw	ra,44(sp)
    10ac:	02812403          	lw	s0,40(sp)
    10b0:	02412483          	lw	s1,36(sp)
    10b4:	02012903          	lw	s2,32(sp)
    10b8:	01c12983          	lw	s3,28(sp)
    10bc:	01812a03          	lw	s4,24(sp)
    10c0:	01412a83          	lw	s5,20(sp)
    10c4:	03010113          	addi	sp,sp,48
    10c8:	00008067          	jalr	zero,0(ra)

000010cc <gcd>:
    10cc:	ff010113          	addi	sp,sp,-16
    10d0:	00812423          	sw	s0,8(sp)
    10d4:	00112623          	sw	ra,12(sp)
    10d8:	00058413          	addi	s0,a1,0
    10dc:	0080006f          	jal	zero,10e4 <gcd+0x18>
    10e0:	00078413          	addi	s0,a5,0
    10e4:	00040593          	addi	a1,s0,0
    10e8:	0a4000ef          	jal	ra,118c <__modsi3>
    10ec:	00050793          	addi	a5,a0,0
    10f0:	00040513          	addi	a0,s0,0
    10f4:	fe0796e3          	bne	a5,zero,10e0 <gcd+0x14>
    10f8:	00c12083          	lw	ra,12(sp)
    10fc:	00812403          	lw	s0,8(sp)
    1100:	01010113          	addi	sp,sp,16
    1104:	00008067          	jalr	zero,0(ra)

00001108 <__divsi3>:
    1108:	06054063          	blt	a0,zero,1168 <__umodsi3+0x10>
    110c:	0605c663          	blt	a1,zero,1178 <__umodsi3+0x20>

00001110 <__udivsi3>:
    1110:	00058613          	addi	a2,a1,0
    1114:	00050593          	addi	a1,a0,0
    1118:	fff00513          	addi	a0,zero,-1
    111c:	02060c63          	beq	a2,zero,1154 <__udivsi3+0x44>
    1120:	00100693          	addi	a3,zero,1
    1124:	00b67a63          	bgeu	a2,a1,1138 <__udivsi3+0x28>
    1128:	00c05863          	bge	zero,a2,1138 <__udivsi3+0x28>
    112c:	00161613          	slli	a2,a2,0x1
    1130:	00169693          	slli	a3,a3,0x1
    1134:	feb66ae3          	bltu	a2,a1,1128 <__udivsi3+0x18>
    1138:	00000513          	addi	a0,zero,0
    113c:	00c5e663          	bltu	a1,a2,1148 <__udivsi3+0x38>
    1140:	40c585b3          	sub	a1,a1,a2
    1144:	00d56533          	or	a0,a0,a3
    1148:	0016d693          	srli	a3,a3,0x1
    114c:	00165613          	srli	a2,a2,0x1
    1150:	fe0696e3          	bne	a3,zero,113c <__udivsi3+0x2c>
    1154:	00008067          	jalr	zero,0(ra)

00001158 <__umodsi3>:
    1158:	00008293          	addi	t0,ra,0
    115c:	fb5ff0ef          	jal	ra,1110 <__udivsi3>
    1160:	00058513          	addi	a0,a1,0
    1164:	00028067          	jalr	zero,0(t0)
    1168:	40a00533          	sub	a0,zero,a0
    116c:	0005d863          	bge	a1,zero,117c <__umodsi3+0x24>
    1170:	40b005b3          	sub	a1,zero,a1
    1174:	f9dff06f          	jal	zero,1110 <__udivsi3>
    1178:	40b005b3          	sub	a1,zero,a1
    117c:	00008293          	addi	t0,ra,0
    1180:	f91ff0ef          	jal	ra,1110 <__udivsi3>
    1184:	40a00533          	sub	a0,zero,a0
    1188:	00028067          	jalr	zero,0(t0)

0000118c <__modsi3>:
    118c:	00008293          	addi	t0,ra,0
    1190:	0005ca63          	blt	a1,zero,11a4 <__modsi3+0x18>
    1194:	00054c63          	blt	a0,zero,11ac <__modsi3+0x20>
    1198:	f79ff0ef          	jal	ra,1110 <__udivsi3>
    119c:	00058513          	addi	a0,a1,0
    11a0:	00028067          	jalr	zero,0(t0)
    11a4:	40b005b3          	sub	a1,zero,a1
    11a8:	fe0558e3          	bge	a0,zero,1198 <__modsi3+0xc>
    11ac:	40a00533          	sub	a0,zero,a0
    11b0:	f61ff0ef          	jal	ra,1110 <__udivsi3>
    11b4:	40b00533          	sub	a0,zero,a1
    11b8:	00028067          	jalr	zero,0(t0)

Disassembly of section .text.startup:

000011bc <main>:
    11bc:	ff010113          	addi	sp,sp,-16
    11c0:	00100513          	addi	a0,zero,1
    11c4:	00812423          	sw	s0,8(sp)
    11c8:	00112623          	sw	ra,12(sp)
    11cc:	e35ff0ef          	jal	ra,1000 <outl>
    11d0:	000307b7          	lui	a5,0x30
    11d4:	00a00713          	addi	a4,zero,10
    11d8:	00001437          	lui	s0,0x1
    11dc:	00009537          	lui	a0,0x9
    11e0:	00e78023          	sb	a4,0(a5) # 30000 <__heap_start+0x2e000>
    11e4:	c0f40413          	addi	s0,s0,-1009 # c0f <outl-0x3f1>
    11e8:	8aa50513          	addi	a0,a0,-1878 # 88aa <__heap_start+0x68aa>
    11ec:	0080006f          	jal	zero,11f4 <main+0x38>
    11f0:	00078413          	addi	s0,a5,0
    11f4:	00040593          	addi	a1,s0,0
    11f8:	f95ff0ef          	jal	ra,118c <__modsi3>
    11fc:	00050793          	addi	a5,a0,0
    1200:	00040513          	addi	a0,s0,0
    1204:	fe0796e3          	bne	a5,zero,11f0 <main+0x34>
    1208:	df9ff0ef          	jal	ra,1000 <outl>
    120c:	000307b7          	lui	a5,0x30
    1210:	00a00713          	addi	a4,zero,10
    1214:	00001537          	lui	a0,0x1
    1218:	00e78023          	sb	a4,0(a5) # 30000 <__heap_start+0x2e000>
    121c:	60300413          	addi	s0,zero,1539
    1220:	b5b50513          	addi	a0,a0,-1189 # b5b <outl-0x4a5>
    1224:	0080006f          	jal	zero,122c <main+0x70>
    1228:	00078413          	addi	s0,a5,0
    122c:	00040593          	addi	a1,s0,0
    1230:	f5dff0ef          	jal	ra,118c <__modsi3>
    1234:	00050793          	addi	a5,a0,0
    1238:	00040513          	addi	a0,s0,0
    123c:	fe0796e3          	bne	a5,zero,1228 <main+0x6c>
    1240:	dc1ff0ef          	jal	ra,1000 <outl>
    1244:	000307b7          	lui	a5,0x30
    1248:	00a00713          	addi	a4,zero,10
    124c:	00e78023          	sb	a4,0(a5) # 30000 <__heap_start+0x2e000>
    1250:	00c12083          	lw	ra,12(sp)
    1254:	00812403          	lw	s0,8(sp)
    1258:	00000513          	addi	a0,zero,0
    125c:	01010113          	addi	sp,sp,16
    1260:	00008067          	jalr	zero,0(ra)

Disassembly of section .comment:

00000000 <.comment>:
   0:	3a434347          	fmsub.d	ft6,ft6,ft4,ft7,rmm
   4:	2820                	c.fld	fs0,80(s0)
   6:	29554e47          	fmsub.s	ft8,fa0,fs5,ft5,rmm
   a:	3820                	c.fld	fs0,112(s0)
   c:	322e                	c.fldsp	ft4,232(sp)
   e:	302e                	c.fldsp	ft0,232(sp)
	...

Disassembly of section .debug_line:

00000000 <.debug_line>:
   0:	0164                	c.addi4spn	s1,sp,140
   2:	0000                	unimp
   4:	0002                	c.slli64	zero
   6:	0045                	c.addi	zero,17
   8:	0000                	unimp
   a:	0101                	c.addi	sp,0
   c:	000d0efb          	0xd0efb
  10:	0101                	c.addi	sp,0
  12:	0101                	c.addi	sp,0
  14:	0000                	unimp
  16:	0100                	c.addi4spn	s0,sp,128
  18:	0000                	unimp
  1a:	2e01                	c.jal	32a <outl-0xcd6>
  1c:	2f2e                	c.fldsp	ft10,200(sp)
  1e:	2e2e                	c.fldsp	ft8,200(sp)
  20:	2f2e2e2f          	0x2f2e2e2f
  24:	2f2e                	c.fldsp	ft10,200(sp)
  26:	6972                	c.flwsp	fs2,28(sp)
  28:	2d766373          	csrrsi	t1,0x2d7,12
  2c:	2f636367          	0x2f636367
  30:	696c                	c.flw	fa1,84(a0)
  32:	6762                	c.flwsp	fa4,24(sp)
  34:	632f6363          	bltu	t5,s2,65a <outl-0x9a6>
  38:	69666e6f          	jal	t3,666ce <__heap_start+0x646ce>
  3c:	69722f67          	0x69722f67
  40:	00766373          	csrrsi	t1,0x7,12
  44:	6400                	c.flw	fs0,8(s0)
  46:	7669                	c.lui	a2,0xffffa
  48:	532e                	c.lwsp	t1,232(sp)
  4a:	0100                	c.addi4spn	s0,sp,128
  4c:	0000                	unimp
  4e:	0000                	unimp
  50:	0205                	c.addi	tp,1
  52:	1108                	c.addi4spn	a0,sp,160
  54:	0000                	unimp
  56:	0100c403          	lbu	s0,16(ra)
  5a:	04090103          	lb	sp,64(s2)
  5e:	0100                	c.addi4spn	s0,sp,128
  60:	04090403          	lb	s0,64(s2)
  64:	0100                	c.addi4spn	s0,sp,128
  66:	04090103          	lb	sp,64(s2)
  6a:	0100                	c.addi4spn	s0,sp,128
  6c:	04090103          	lb	sp,64(s2)
  70:	0100                	c.addi4spn	s0,sp,128
  72:	04090103          	lb	sp,64(s2)
  76:	0100                	c.addi4spn	s0,sp,128
  78:	04090103          	lb	sp,64(s2)
  7c:	0100                	c.addi4spn	s0,sp,128
  7e:	04090103          	lb	sp,64(s2)
  82:	0100                	c.addi4spn	s0,sp,128
  84:	04090203          	lb	tp,64(s2)
  88:	0100                	c.addi4spn	s0,sp,128
  8a:	04090103          	lb	sp,64(s2)
  8e:	0100                	c.addi4spn	s0,sp,128
  90:	04090103          	lb	sp,64(s2)
  94:	0100                	c.addi4spn	s0,sp,128
  96:	04090103          	lb	sp,64(s2)
  9a:	0100                	c.addi4spn	s0,sp,128
  9c:	04090203          	lb	tp,64(s2)
  a0:	0100                	c.addi4spn	s0,sp,128
  a2:	04090203          	lb	tp,64(s2)
  a6:	0100                	c.addi4spn	s0,sp,128
  a8:	04090103          	lb	sp,64(s2)
  ac:	0100                	c.addi4spn	s0,sp,128
  ae:	04090103          	lb	sp,64(s2)
  b2:	0100                	c.addi4spn	s0,sp,128
  b4:	04090203          	lb	tp,64(s2)
  b8:	0100                	c.addi4spn	s0,sp,128
  ba:	04090103          	lb	sp,64(s2)
  be:	0100                	c.addi4spn	s0,sp,128
  c0:	04090103          	lb	sp,64(s2)
  c4:	0100                	c.addi4spn	s0,sp,128
  c6:	04090203          	lb	tp,64(s2)
  ca:	0100                	c.addi4spn	s0,sp,128
  cc:	04090503          	lb	a0,64(s2)
  d0:	0100                	c.addi4spn	s0,sp,128
  d2:	04090103          	lb	sp,64(s2)
  d6:	0100                	c.addi4spn	s0,sp,128
  d8:	04090103          	lb	sp,64(s2)
  dc:	0100                	c.addi4spn	s0,sp,128
  de:	04090103          	lb	sp,64(s2)
  e2:	0100                	c.addi4spn	s0,sp,128
  e4:	04090503          	lb	a0,64(s2)
  e8:	0100                	c.addi4spn	s0,sp,128
  ea:	04090103          	lb	sp,64(s2)
  ee:	0100                	c.addi4spn	s0,sp,128
  f0:	04090103          	lb	sp,64(s2)
  f4:	0100                	c.addi4spn	s0,sp,128
  f6:	04090103          	lb	sp,64(s2)
  fa:	0100                	c.addi4spn	s0,sp,128
  fc:	04090203          	lb	tp,64(s2)
 100:	0100                	c.addi4spn	s0,sp,128
 102:	04090203          	lb	tp,64(s2)
 106:	0100                	c.addi4spn	s0,sp,128
 108:	04090103          	lb	sp,64(s2)
 10c:	0100                	c.addi4spn	s0,sp,128
 10e:	04090103          	lb	sp,64(s2)
 112:	0100                	c.addi4spn	s0,sp,128
 114:	04090103          	lb	sp,64(s2)
 118:	0100                	c.addi4spn	s0,sp,128
 11a:	04090403          	lb	s0,64(s2)
 11e:	0100                	c.addi4spn	s0,sp,128
 120:	04090103          	lb	sp,64(s2)
 124:	0100                	c.addi4spn	s0,sp,128
 126:	04090103          	lb	sp,64(s2)
 12a:	0100                	c.addi4spn	s0,sp,128
 12c:	04090203          	lb	tp,64(s2)
 130:	0100                	c.addi4spn	s0,sp,128
 132:	04090103          	lb	sp,64(s2)
 136:	0100                	c.addi4spn	s0,sp,128
 138:	04090103          	lb	sp,64(s2)
 13c:	0100                	c.addi4spn	s0,sp,128
 13e:	04090203          	lb	tp,64(s2)
 142:	0100                	c.addi4spn	s0,sp,128
 144:	04090103          	lb	sp,64(s2)
 148:	0100                	c.addi4spn	s0,sp,128
 14a:	04090203          	lb	tp,64(s2)
 14e:	0100                	c.addi4spn	s0,sp,128
 150:	04090103          	lb	sp,64(s2)
 154:	0100                	c.addi4spn	s0,sp,128
 156:	04090103          	lb	sp,64(s2)
 15a:	0100                	c.addi4spn	s0,sp,128
 15c:	04090103          	lb	sp,64(s2)
 160:	0100                	c.addi4spn	s0,sp,128
 162:	0409                	c.addi	s0,2
 164:	0000                	unimp
 166:	0101                	c.addi	sp,0

Disassembly of section .debug_info:

00000000 <.debug_info>:
   0:	0022                	c.slli	zero,0x8
   2:	0000                	unimp
   4:	0002                	c.slli64	zero
   6:	0000                	unimp
   8:	0000                	unimp
   a:	0104                	c.addi4spn	s1,sp,128
   c:	0000                	unimp
   e:	0000                	unimp
  10:	1108                	c.addi4spn	a0,sp,160
  12:	0000                	unimp
  14:	11bc                	c.addi4spn	a5,sp,232
  16:	0000                	unimp
  18:	0000                	unimp
  1a:	0000                	unimp
  1c:	0000002f          	0x2f
  20:	0088                	c.addi4spn	a0,sp,64
  22:	0000                	unimp
  24:	8001                	c.srli64	s0

Disassembly of section .debug_abbrev:

00000000 <.debug_abbrev>:
   0:	1101                	c.addi	sp,-32
   2:	1000                	c.addi4spn	s0,sp,32
   4:	1106                	c.slli	sp,0x21
   6:	1201                	c.addi	tp,-32
   8:	0301                	c.addi	t1,0
   a:	1b0e                	c.slli	s6,0x23
   c:	250e                	c.fldsp	fa0,192(sp)
   e:	130e                	c.slli	t1,0x23
  10:	0005                	c.addi	zero,1
	...

Disassembly of section .debug_aranges:

00000000 <.debug_aranges>:
   0:	001c                	0x1c
   2:	0000                	unimp
   4:	0002                	c.slli64	zero
   6:	0000                	unimp
   8:	0000                	unimp
   a:	0004                	0x4
   c:	0000                	unimp
   e:	0000                	unimp
  10:	1108                	c.addi4spn	a0,sp,160
  12:	0000                	unimp
  14:	00b4                	c.addi4spn	a3,sp,72
	...

Disassembly of section .debug_str:

00000000 <.debug_str>:
   0:	2e2e                	c.fldsp	ft8,200(sp)
   2:	2f2e2e2f          	0x2f2e2e2f
   6:	2e2e                	c.fldsp	ft8,200(sp)
   8:	722f2e2f          	0x722f2e2f
   c:	7369                	c.lui	t1,0xffffa
   e:	672d7663          	bgeu	s10,s2,67a <outl-0x986>
  12:	6c2f6363          	bltu	t5,sp,6d8 <outl-0x928>
  16:	6269                	c.lui	tp,0x1a
  18:	2f636367          	0x2f636367
  1c:	666e6f63          	bltu	t3,t1,69a <outl-0x966>
  20:	6769                	c.lui	a4,0x1a
  22:	7369722f          	0x7369722f
  26:	642f7663          	bgeu	t5,sp,672 <outl-0x98e>
  2a:	7669                	c.lui	a2,0xffffa
  2c:	532e                	c.lwsp	t1,232(sp)
  2e:	2f00                	c.fld	fs0,24(a4)
  30:	6e6d                	c.lui	t3,0x1b
  32:	2f74                	c.fld	fa3,216(a4)
  34:	2f64                	c.fld	fs1,216(a4)
  36:	4341                	c.li	t1,16
  38:	2f4d                	c.jal	7ea <outl-0x816>
  3a:	74737953          	0x74737953
  3e:	6d65                	c.lui	s10,0x19
  40:	7369722f          	0x7369722f
  44:	672d7663          	bgeu	s10,s2,6b0 <outl-0x950>
  48:	756e                	c.flwsp	fa0,248(sp)
  4a:	742d                	c.lui	s0,0xfffeb
  4c:	636c6f6f          	jal	t5,c6682 <__heap_start+0xc4682>
  50:	6168                	c.flw	fa0,68(a0)
  52:	6e69                	c.lui	t3,0x1a
  54:	6975622f          	0x6975622f
  58:	646c                	c.flw	fa1,76(s0)
  5a:	672d                	c.lui	a4,0xb
  5c:	6e2d6363          	bltu	s10,sp,742 <outl-0x8be>
  60:	7765                	c.lui	a4,0xffff9
  62:	696c                	c.flw	fa1,84(a0)
  64:	2d62                	c.fldsp	fs10,24(sp)
  66:	67617473          	csrrci	s0,0x676,2
  6a:	3265                	c.jal	fffffa12 <__heap_start+0xffffda12>
  6c:	7369722f          	0x7369722f
  70:	32337663          	bgeu	t1,gp,39c <outl-0xc64>
  74:	752d                	c.lui	a0,0xfffeb
  76:	6b6e                	c.flwsp	fs6,216(sp)
  78:	6f6e                	c.flwsp	ft10,216(sp)
  7a:	652d6e77          	0x652d6e77
  7e:	666c                	c.flw	fa1,76(a2)
  80:	62696c2f          	0x62696c2f
  84:	00636367          	0x636367
  88:	20554e47          	fmsub.s	ft8,fa0,ft5,ft4,rmm
  8c:	5341                	c.li	t1,-16
  8e:	3220                	c.fld	fs0,96(a2)
  90:	332e                	c.fldsp	ft6,232(sp)
  92:	2e31                	c.jal	3ae <outl-0xc52>
  94:	0031                	c.addi	zero,12
