
./test/test.om:     file format elf32-littleriscv


Disassembly of section .rom:

00000000 <.rom>:
   0:	00020137          	lui	sp,0x20
   4:	1b8010ef          	jal	ra,11bc <main>
   8:	0ff00513          	addi	a0,zero,255
   c:	000306b7          	lui	a3,0x30
  10:	00a68223          	sb	a0,4(a3) # 30004 <__heap_start+0x2e004>
  14:	ff9ff06f          	jal	zero,c <outl-0xff4>

Disassembly of section .text:

00001000 <outl>:
    1000:	fd010113          	addi	sp,sp,-48 # 1ffd0 <__heap_start+0x1dfd0>
    1004:	02912223          	sw	s1,36(sp)
    1008:	01512a23          	sw	s5,20(sp)
    100c:	02112623          	sw	ra,44(sp)
    1010:	02812423          	sw	s0,40(sp)
    1014:	03212023          	sw	s2,32(sp)
    1018:	01312e23          	sw	s3,28(sp)
    101c:	01412c23          	sw	s4,24(sp)
    1020:	00050493          	addi	s1,a0,0
    1024:	00000a93          	addi	s5,zero,0
    1028:	00055663          	bge	a0,zero,1034 <outl+0x34>
    102c:	40a004b3          	sub	s1,zero,a0
    1030:	00100a93          	addi	s5,zero,1
    1034:	00000993          	addi	s3,zero,0
    1038:	00410913          	addi	s2,sp,4
    103c:	00900a13          	addi	s4,zero,9
    1040:	00c0006f          	jal	zero,104c <outl+0x4c>
    1044:	00040993          	addi	s3,s0,0
    1048:	00050493          	addi	s1,a0,0
    104c:	00a00593          	addi	a1,zero,10
    1050:	00048513          	addi	a0,s1,0
    1054:	138000ef          	jal	ra,118c <__modsi3>
    1058:	00198413          	addi	s0,s3,1
    105c:	03050713          	addi	a4,a0,48
    1060:	008907b3          	add	a5,s2,s0
    1064:	00048513          	addi	a0,s1,0
    1068:	00a00593          	addi	a1,zero,10
    106c:	fee78fa3          	sb	a4,-1(a5)
    1070:	098000ef          	jal	ra,1108 <__divsi3>
    1074:	fc9a48e3          	blt	s4,s1,1044 <outl+0x44>
    1078:	000a8c63          	beq	s5,zero,1090 <outl+0x90>
    107c:	01010793          	addi	a5,sp,16
    1080:	008787b3          	add	a5,a5,s0
    1084:	02d00713          	addi	a4,zero,45
    1088:	fee78a23          	sb	a4,-12(a5)
    108c:	00298413          	addi	s0,s3,2
    1090:	008907b3          	add	a5,s2,s0
    1094:	000306b7          	lui	a3,0x30
    1098:	fff7c703          	lbu	a4,-1(a5)
    109c:	fff78793          	addi	a5,a5,-1
    10a0:	00e68023          	sb	a4,0(a3) # 30000 <__heap_start+0x2e000>
    10a4:	fef91ae3          	bne	s2,a5,1098 <outl+0x98>
    10a8:	02c12083          	lw	ra,44(sp)
    10ac:	02812403          	lw	s0,40(sp)
    10b0:	02412483          	lw	s1,36(sp)
    10b4:	02012903          	lw	s2,32(sp)
    10b8:	01c12983          	lw	s3,28(sp)
    10bc:	01812a03          	lw	s4,24(sp)
    10c0:	01412a83          	lw	s5,20(sp)
    10c4:	03010113          	addi	sp,sp,48
    10c8:	00008067          	jalr	zero,0(ra)

000010cc <gcd>:
    10cc:	ff010113          	addi	sp,sp,-16
    10d0:	00812423          	sw	s0,8(sp)
    10d4:	00112623          	sw	ra,12(sp)
    10d8:	00058413          	addi	s0,a1,0
    10dc:	0080006f          	jal	zero,10e4 <gcd+0x18>
    10e0:	00078413          	addi	s0,a5,0
    10e4:	00040593          	addi	a1,s0,0
    10e8:	0a4000ef          	jal	ra,118c <__modsi3>
    10ec:	00050793          	addi	a5,a0,0
    10f0:	00040513          	addi	a0,s0,0
    10f4:	fe0796e3          	bne	a5,zero,10e0 <gcd+0x14>
    10f8:	00c12083          	lw	ra,12(sp)
    10fc:	00812403          	lw	s0,8(sp)
    1100:	01010113          	addi	sp,sp,16
    1104:	00008067          	jalr	zero,0(ra)

00001108 <__divsi3>:
    1108:	06054063          	blt	a0,zero,1168 <__umodsi3+0x10>
    110c:	0605c663          	blt	a1,zero,1178 <__umodsi3+0x20>

00001110 <__udivsi3>:
    1110:	00058613          	addi	a2,a1,0
    1114:	00050593          	addi	a1,a0,0
    1118:	fff00513          	addi	a0,zero,-1
    111c:	02060c63          	beq	a2,zero,1154 <__udivsi3+0x44>
    1120:	00100693          	addi	a3,zero,1
    1124:	00b67a63          	bgeu	a2,a1,1138 <__udivsi3+0x28>
    1128:	00c05863          	bge	zero,a2,1138 <__udivsi3+0x28>
    112c:	00161613          	slli	a2,a2,0x1
    1130:	00169693          	slli	a3,a3,0x1
    1134:	feb66ae3          	bltu	a2,a1,1128 <__udivsi3+0x18>
    1138:	00000513          	addi	a0,zero,0
    113c:	00c5e663          	bltu	a1,a2,1148 <__udivsi3+0x38>
    1140:	40c585b3          	sub	a1,a1,a2
    1144:	00d56533          	or	a0,a0,a3
    1148:	0016d693          	srli	a3,a3,0x1
    114c:	00165613          	srli	a2,a2,0x1
    1150:	fe0696e3          	bne	a3,zero,113c <__udivsi3+0x2c>
    1154:	00008067          	jalr	zero,0(ra)

00001158 <__umodsi3>:
    1158:	00008293          	addi	t0,ra,0
    115c:	fb5ff0ef          	jal	ra,1110 <__udivsi3>
    1160:	00058513          	addi	a0,a1,0
    1164:	00028067          	jalr	zero,0(t0)
    1168:	40a00533          	sub	a0,zero,a0
    116c:	0005d863          	bge	a1,zero,117c <__umodsi3+0x24>
    1170:	40b005b3          	sub	a1,zero,a1
    1174:	f9dff06f          	jal	zero,1110 <__udivsi3>
    1178:	40b005b3          	sub	a1,zero,a1
    117c:	00008293          	addi	t0,ra,0
    1180:	f91ff0ef          	jal	ra,1110 <__udivsi3>
    1184:	40a00533          	sub	a0,zero,a0
    1188:	00028067          	jalr	zero,0(t0)

0000118c <__modsi3>:
    118c:	00008293          	addi	t0,ra,0
    1190:	0005ca63          	blt	a1,zero,11a4 <__modsi3+0x18>
    1194:	00054c63          	blt	a0,zero,11ac <__modsi3+0x20>
    1198:	f79ff0ef          	jal	ra,1110 <__udivsi3>
    119c:	00058513          	addi	a0,a1,0
    11a0:	00028067          	jalr	zero,0(t0)
    11a4:	40b005b3          	sub	a1,zero,a1
    11a8:	fe0558e3          	bge	a0,zero,1198 <__modsi3+0xc>
    11ac:	40a00533          	sub	a0,zero,a0
    11b0:	f61ff0ef          	jal	ra,1110 <__udivsi3>
    11b4:	40b00533          	sub	a0,zero,a1
    11b8:	00028067          	jalr	zero,0(t0)

Disassembly of section .text.startup:

000011bc <main>:
    11bc:	ff010113          	addi	sp,sp,-16
    11c0:	00100513          	addi	a0,zero,1
    11c4:	00812423          	sw	s0,8(sp)
    11c8:	00112623          	sw	ra,12(sp)
    11cc:	e35ff0ef          	jal	ra,1000 <outl>
    11d0:	000307b7          	lui	a5,0x30
    11d4:	00a00713          	addi	a4,zero,10
    11d8:	00001437          	lui	s0,0x1
    11dc:	00009537          	lui	a0,0x9
    11e0:	00e78023          	sb	a4,0(a5) # 30000 <__heap_start+0x2e000>
    11e4:	c0f40413          	addi	s0,s0,-1009 # c0f <outl-0x3f1>
    11e8:	8aa50513          	addi	a0,a0,-1878 # 88aa <__heap_start+0x68aa>
    11ec:	0080006f          	jal	zero,11f4 <main+0x38>
    11f0:	00078413          	addi	s0,a5,0
    11f4:	00040593          	addi	a1,s0,0
    11f8:	f95ff0ef          	jal	ra,118c <__modsi3>
    11fc:	00050793          	addi	a5,a0,0
    1200:	00040513          	addi	a0,s0,0
    1204:	fe0796e3          	bne	a5,zero,11f0 <main+0x34>
    1208:	df9ff0ef          	jal	ra,1000 <outl>
    120c:	000307b7          	lui	a5,0x30
    1210:	00a00713          	addi	a4,zero,10
    1214:	00001537          	lui	a0,0x1
    1218:	00e78023          	sb	a4,0(a5) # 30000 <__heap_start+0x2e000>
    121c:	60300413          	addi	s0,zero,1539
    1220:	b5b50513          	addi	a0,a0,-1189 # b5b <outl-0x4a5>
    1224:	0080006f          	jal	zero,122c <main+0x70>
    1228:	00078413          	addi	s0,a5,0
    122c:	00040593          	addi	a1,s0,0
    1230:	f5dff0ef          	jal	ra,118c <__modsi3>
    1234:	00050793          	addi	a5,a0,0
    1238:	00040513          	addi	a0,s0,0
    123c:	fe0796e3          	bne	a5,zero,1228 <main+0x6c>
    1240:	dc1ff0ef          	jal	ra,1000 <outl>
    1244:	000307b7          	lui	a5,0x30
    1248:	00a00713          	addi	a4,zero,10
    124c:	00e78023          	sb	a4,0(a5) # 30000 <__heap_start+0x2e000>
    1250:	00c12083          	lw	ra,12(sp)
    1254:	00812403          	lw	s0,8(sp)
    1258:	00000513          	addi	a0,zero,0
    125c:	01010113          	addi	sp,sp,16
    1260:	00008067          	jalr	zero,0(ra)
